; Function Attrs: nofree norecurse nosync nounwind memory(argmem: readwrite) uwtable
define internal fastcc void @chacha_block(ptr noundef captures(none) %0) unnamed_addr #0 {
.preheader21:
  %1 = alloca [16 x i32], align 16
  call void @llvm.lifetime.start.p0(i64 64, ptr nonnull %1) #10
  call void @llvm.memcpy.p0.p0.i64(ptr noundef nonnull align 16 dereferenceable(64) %1, ptr noundef nonnull align 4 dereferenceable(64) %0, i64 64, i1 false), !tbaa !3
  %2 = getelementptr inbounds nuw i8, ptr %1, i64 16
  %3 = getelementptr inbounds nuw i8, ptr %1, i64 48
  %4 = getelementptr inbounds nuw i8, ptr %1, i64 32
  %5 = getelementptr inbounds nuw i8, ptr %1, i64 20
  %6 = getelementptr inbounds nuw i8, ptr %1, i64 4
  %7 = getelementptr inbounds nuw i8, ptr %1, i64 52
  %8 = getelementptr inbounds nuw i8, ptr %1, i64 36
  %9 = getelementptr inbounds nuw i8, ptr %1, i64 24
  %10 = getelementptr inbounds nuw i8, ptr %1, i64 8
  %11 = getelementptr inbounds nuw i8, ptr %1, i64 56
  %12 = getelementptr inbounds nuw i8, ptr %1, i64 40
  %13 = getelementptr inbounds nuw i8, ptr %1, i64 28
  %14 = getelementptr inbounds nuw i8, ptr %1, i64 12
  %15 = getelementptr inbounds nuw i8, ptr %1, i64 60
  %16 = getelementptr inbounds nuw i8, ptr %1, i64 44
  %.promoted = load i32, ptr %2, align 16, !tbaa !3
  %.promoted23 = load i32, ptr %1, align 16, !tbaa !3
  %.promoted25 = load i32, ptr %3, align 16, !tbaa !3
  %.promoted27 = load i32, ptr %4, align 16, !tbaa !3
  %.promoted29 = load i32, ptr %5, align 4, !tbaa !3
  %.promoted31 = load i32, ptr %6, align 4, !tbaa !3
  %.promoted33 = load i32, ptr %7, align 4, !tbaa !3
  %.promoted35 = load i32, ptr %8, align 4, !tbaa !3
  %.promoted37 = load i32, ptr %9, align 8, !tbaa !3
  %.promoted39 = load i32, ptr %10, align 8, !tbaa !3
  %.promoted41 = load i32, ptr %11, align 8, !tbaa !3
  %.promoted43 = load i32, ptr %12, align 8, !tbaa !3
  %.promoted45 = load i32, ptr %13, align 4, !tbaa !3
  %.promoted47 = load i32, ptr %14, align 4, !tbaa !3
  %.promoted49 = load i32, ptr %15, align 4, !tbaa !3
  %.promoted51 = load i32, ptr %16, align 4, !tbaa !3
  br label %18

.preheader:                                       ; preds = %18
  store i32 %130, ptr %2, align 16, !tbaa !3
  store i32 %89, ptr %1, align 16, !tbaa !3
  store i32 %103, ptr %3, align 16, !tbaa !3
  store i32 %116, ptr %4, align 16, !tbaa !3
  store i32 %94, ptr %5, align 4, !tbaa !3
  store i32 %101, ptr %6, align 4, !tbaa !3
  store i32 %115, ptr %7, align 4, !tbaa !3
  store i32 %128, ptr %8, align 4, !tbaa !3
  store i32 %106, ptr %9, align 8, !tbaa !3
  store i32 %113, ptr %10, align 8, !tbaa !3
  store i32 %127, ptr %11, align 8, !tbaa !3
  store i32 %92, ptr %12, align 8, !tbaa !3
  store i32 %118, ptr %13, align 4, !tbaa !3
  store i32 %125, ptr %14, align 4, !tbaa !3
  store i32 %91, ptr %15, align 4, !tbaa !3
  store i32 %104, ptr %16, align 4, !tbaa !3
  %17 = getelementptr inbounds nuw i8, ptr %0, i64 64
  br label %139

18:                                               ; preds = %.preheader21, %18
  %.01953 = phi i64 [ 0, %.preheader21 ], [ %131, %18 ]
  %19 = phi i32 [ %.promoted, %.preheader21 ], [ %130, %18 ]
  %20 = phi i32 [ %.promoted23, %.preheader21 ], [ %89, %18 ]
  %21 = phi i32 [ %.promoted25, %.preheader21 ], [ %103, %18 ]
  %22 = phi i32 [ %.promoted27, %.preheader21 ], [ %116, %18 ]
  %23 = phi i32 [ %.promoted29, %.preheader21 ], [ %94, %18 ]
  %24 = phi i32 [ %.promoted31, %.preheader21 ], [ %101, %18 ]
  %25 = phi i32 [ %.promoted33, %.preheader21 ], [ %115, %18 ]
  %26 = phi i32 [ %.promoted35, %.preheader21 ], [ %128, %18 ]
  %27 = phi i32 [ %.promoted37, %.preheader21 ], [ %106, %18 ]
  %28 = phi i32 [ %.promoted39, %.preheader21 ], [ %113, %18 ]
  %29 = phi i32 [ %.promoted41, %.preheader21 ], [ %127, %18 ]
  %30 = phi i32 [ %.promoted43, %.preheader21 ], [ %92, %18 ]
  %31 = phi i32 [ %.promoted45, %.preheader21 ], [ %118, %18 ]
  %32 = phi i32 [ %.promoted47, %.preheader21 ], [ %125, %18 ]
  %33 = phi i32 [ %.promoted49, %.preheader21 ], [ %91, %18 ]
  %34 = phi i32 [ %.promoted51, %.preheader21 ], [ %104, %18 ]
  %35 = add i32 %20, %19
  %36 = xor i32 %21, %35
  %37 = tail call noundef i32 @llvm.fshl.i32(i32 %36, i32 %36, i32 16)
  %38 = add i32 %37, %22
  %39 = xor i32 %38, %19
  %40 = tail call noundef i32 @llvm.fshl.i32(i32 %39, i32 %39, i32 12)
  %41 = add i32 %40, %35
  %42 = xor i32 %41, %37
  %43 = tail call noundef i32 @llvm.fshl.i32(i32 %42, i32 %42, i32 8)
  %44 = add i32 %43, %38
  %45 = xor i32 %44, %40
  %46 = tail call noundef i32 @llvm.fshl.i32(i32 %45, i32 %45, i32 7)
  %47 = add i32 %24, %23
  %48 = xor i32 %25, %47
  %49 = tail call noundef i32 @llvm.fshl.i32(i32 %48, i32 %48, i32 16)
  %50 = add i32 %49, %26
  %51 = xor i32 %50, %23
  %52 = tail call noundef i32 @llvm.fshl.i32(i32 %51, i32 %51, i32 12)
  %53 = add i32 %52, %47
  %54 = xor i32 %53, %49
  %55 = tail call noundef i32 @llvm.fshl.i32(i32 %54, i32 %54, i32 8)
  %56 = add i32 %55, %50
  %57 = xor i32 %56, %52
  %58 = tail call noundef i32 @llvm.fshl.i32(i32 %57, i32 %57, i32 7)
  %59 = add i32 %28, %27
  %60 = xor i32 %29, %59
  %61 = tail call noundef i32 @llvm.fshl.i32(i32 %60, i32 %60, i32 16)
  %62 = add i32 %61, %30
  %63 = xor i32 %62, %27
  %64 = tail call noundef i32 @llvm.fshl.i32(i32 %63, i32 %63, i32 12)
  %65 = add i32 %64, %59
  %66 = xor i32 %65, %61
  %67 = tail call noundef i32 @llvm.fshl.i32(i32 %66, i32 %66, i32 8)
  %68 = add i32 %67, %62
  %69 = xor i32 %68, %64
  %70 = tail call noundef i32 @llvm.fshl.i32(i32 %69, i32 %69, i32 7)
  %71 = add i32 %32, %31
  %72 = xor i32 %33, %71
  %73 = tail call noundef i32 @llvm.fshl.i32(i32 %72, i32 %72, i32 16)
  %74 = add i32 %73, %34
  %75 = xor i32 %74, %31
  %76 = tail call noundef i32 @llvm.fshl.i32(i32 %75, i32 %75, i32 12)
  %77 = add i32 %76, %71
  %78 = xor i32 %77, %73
  %79 = tail call noundef i32 @llvm.fshl.i32(i32 %78, i32 %78, i32 8)
  %80 = add i32 %79, %74
  %81 = xor i32 %80, %76
  %82 = tail call noundef i32 @llvm.fshl.i32(i32 %81, i32 %81, i32 7)
  %83 = add i32 %58, %41
  %84 = xor i32 %79, %83
  %85 = tail call noundef i32 @llvm.fshl.i32(i32 %84, i32 %84, i32 16)
  %86 = add i32 %85, %68
  %87 = xor i32 %86, %58
  %88 = tail call noundef i32 @llvm.fshl.i32(i32 %87, i32 %87, i32 12)
  %89 = add i32 %88, %83
  %90 = xor i32 %89, %85
  %91 = tail call noundef i32 @llvm.fshl.i32(i32 %90, i32 %90, i32 8)
  %92 = add i32 %91, %86
  %93 = xor i32 %92, %88
  %94 = tail call noundef i32 @llvm.fshl.i32(i32 %93, i32 %93, i32 7)
  %95 = add i32 %70, %53
  %96 = xor i32 %95, %43
  %97 = tail call noundef i32 @llvm.fshl.i32(i32 %96, i32 %96, i32 16)
  %98 = add i32 %80, %97
  %99 = xor i32 %98, %70
  %100 = tail call noundef i32 @llvm.fshl.i32(i32 %99, i32 %99, i32 12)
  %101 = add i32 %100, %95
  %102 = xor i32 %101, %97
  %103 = tail call noundef i32 @llvm.fshl.i32(i32 %102, i32 %102, i32 8)
  %104 = add i32 %103, %98
  %105 = xor i32 %104, %100
  %106 = tail call noundef i32 @llvm.fshl.i32(i32 %105, i32 %105, i32 7)
  %107 = add i32 %82, %65
  %108 = xor i32 %107, %55
  %109 = tail call noundef i32 @llvm.fshl.i32(i32 %108, i32 %108, i32 16)
  %110 = add i32 %109, %44
  %111 = xor i32 %110, %82
  %112 = tail call noundef i32 @llvm.fshl.i32(i32 %111, i32 %111, i32 12)
  %113 = add i32 %112, %107
  %114 = xor i32 %113, %109
  %115 = tail call noundef i32 @llvm.fshl.i32(i32 %114, i32 %114, i32 8)
  %116 = add i32 %115, %110
  %117 = xor i32 %116, %112
  %118 = tail call noundef i32 @llvm.fshl.i32(i32 %117, i32 %117, i32 7)
  %119 = add i32 %77, %46
  %120 = xor i32 %119, %67
  %121 = tail call noundef i32 @llvm.fshl.i32(i32 %120, i32 %120, i32 16)
  %122 = add i32 %121, %56
  %123 = xor i32 %122, %46
  %124 = tail call noundef i32 @llvm.fshl.i32(i32 %123, i32 %123, i32 12)
  %125 = add i32 %124, %119
  %126 = xor i32 %125, %121
  %127 = tail call noundef i32 @llvm.fshl.i32(i32 %126, i32 %126, i32 8)
  %128 = add i32 %127, %122
  %129 = xor i32 %128, %124
  %130 = tail call noundef i32 @llvm.fshl.i32(i32 %129, i32 %129, i32 7)
  %131 = add nuw nsw i64 %.01953, 2
  %132 = icmp samesign ult i64 %.01953, 18
  br i1 %132, label %18, label %.preheader, !llvm.loop !19

133:                                              ; preds = %139
  %134 = getelementptr inbounds nuw i8, ptr %0, i64 128
  store i32 16, ptr %134, align 4, !tbaa !7
  %135 = getelementptr inbounds nuw i8, ptr %0, i64 48
  %136 = load i32, ptr %135, align 4, !tbaa !3
  %137 = add i32 %136, 1
  store i32 %137, ptr %135, align 4, !tbaa !3
  %138 = icmp eq i32 %137, 0
  br i1 %138, label %147, label %156

139:                                              ; preds = %.preheader, %139
  %.054 = phi i64 [ 0, %.preheader ], [ %146, %139 ]
  %140 = getelementptr inbounds nuw [16 x i32], ptr %1, i64 0, i64 %.054
  %141 = load i32, ptr %140, align 4, !tbaa !3
  %142 = getelementptr inbounds nuw [16 x i32], ptr %0, i64 0, i64 %.054
  %143 = load i32, ptr %142, align 4, !tbaa !3
  %144 = add i32 %143, %141
  %145 = getelementptr inbounds nuw [16 x i32], ptr %17, i64 0, i64 %.054
  store i32 %144, ptr %145, align 4, !tbaa !3
  %146 = add nuw nsw i64 %.054, 1
  %exitcond.not = icmp eq i64 %146, 16
  br i1 %exitcond.not, label %133, label %139, !llvm.loop !20

147:                                              ; preds = %133
  %148 = getelementptr inbounds nuw i8, ptr %0, i64 52
  %149 = load i32, ptr %148, align 4, !tbaa !3
  %150 = add i32 %149, 1
  store i32 %150, ptr %148, align 4, !tbaa !3
  %151 = icmp eq i32 %150, 0
  br i1 %151, label %152, label %156

152:                                              ; preds = %147
  %153 = getelementptr inbounds nuw i8, ptr %0, i64 56
  %154 = load i32, ptr %153, align 4, !tbaa !3
  %155 = add i32 %154, 1
  store i32 %155, ptr %153, align 4, !tbaa !3
  br label %156

156:                                              ; preds = %147, %152, %133
  call void @llvm.lifetime.end.p0(i64 64, ptr nonnull %1) #10
  ret void
}